; Function Attrs: nounwind uwtable
define internal void @ResOwnerReleaseTupleDesc(i64 noundef %0) #0 {
  %2 = inttoptr i64 %0 to ptr
  %3 = getelementptr inbounds nuw i8, ptr %2, i64 12
  %4 = load i32, ptr %3, align 4
  %5 = add i32 %4, -1
  store i32 %5, ptr %3, align 4
  %6 = icmp eq i32 %5, 0
  br i1 %6, label %7, label %8

7:                                                ; preds = %1
  tail call void @FreeTupleDesc(ptr noundef nonnull %2)
  br label %8

8:                                                ; preds = %7, %1
  ret void
}